target datalayout = "e-m:e-p270:32:32-p271:32:32-p272:64:64-i64:64-i128:128-f80:128-n8:16:32:64-S128"
target triple = "x86_64-pc-linux-gnu"

@.str.5 = private unnamed_addr constant [6 x i8] c"FILE*\00", align 1
@.str.43 = private unnamed_addr constant [12 x i8] c"closed file\00", align 1
@.str.44 = private unnamed_addr constant [5 x i8] c"file\00", align 1

; Function Attrs: nounwind uwtable
define internal i32 @io_type(ptr noundef %0) #0 {
  %2 = alloca ptr, align 8
  %3 = alloca ptr, align 8
  store ptr %0, ptr %2, align 8, !tbaa !4
  call void @llvm.lifetime.start.p0(i64 8, ptr %3) #6
  %4 = load ptr, ptr %2, align 8, !tbaa !4
  call void @luaL_checkany(ptr noundef %4, i32 noundef 1)
  %5 = load ptr, ptr %2, align 8, !tbaa !4
  %6 = call ptr @lua_touserdata(ptr noundef %5, i32 noundef 1)
  store ptr %6, ptr %3, align 8, !tbaa !11
  %7 = load ptr, ptr %2, align 8, !tbaa !4
  call void @lua_getfield(ptr noundef %7, i32 noundef -10000, ptr noundef @.str.5)
  %8 = load ptr, ptr %3, align 8, !tbaa !11
  %9 = icmp eq ptr %8, null
  br i1 %9, label %18, label %10

10:                                               ; preds = %1
  %11 = load ptr, ptr %2, align 8, !tbaa !4
  %12 = call i32 @lua_getmetatable(ptr noundef %11, i32 noundef 1)
  %13 = icmp ne i32 %12, 0
  br i1 %13, label %14, label %18

14:                                               ; preds = %10
  %15 = load ptr, ptr %2, align 8, !tbaa !4
  %16 = call i32 @lua_rawequal(ptr noundef %15, i32 noundef -2, i32 noundef -1)
  %17 = icmp ne i32 %16, 0
  br i1 %17, label %20, label %18

18:                                               ; preds = %14, %10, %1
  %19 = load ptr, ptr %2, align 8, !tbaa !4
  call void @lua_pushnil(ptr noundef %19)
  br label %29

20:                                               ; preds = %14
  %21 = load ptr, ptr %3, align 8, !tbaa !11
  %22 = load ptr, ptr %21, align 8, !tbaa !9
  %23 = icmp eq ptr %22, null
  br i1 %23, label %24, label %26

24:                                               ; preds = %20
  %25 = load ptr, ptr %2, align 8, !tbaa !4
  call void @lua_pushlstring(ptr noundef %25, ptr noundef @.str.43, i64 noundef 11)
  br label %28

26:                                               ; preds = %20
  %27 = load ptr, ptr %2, align 8, !tbaa !4
  call void @lua_pushlstring(ptr noundef %27, ptr noundef @.str.44, i64 noundef 4)
  br label %28

28:                                               ; preds = %26, %24
  br label %29

29:                                               ; preds = %28, %18
  call void @llvm.lifetime.end.p0(i64 8, ptr %3) #6
  ret i32 1
}