; Function Attrs: nounwind uwtable
define internal noundef i32 @io_type(ptr noundef %0) #0 {
  tail call void @luaL_checkany(ptr noundef %0, i32 noundef 1) #9
  %2 = tail call ptr @lua_touserdata(ptr noundef %0, i32 noundef 1) #9
  tail call void @lua_getfield(ptr noundef %0, i32 noundef -10000, ptr noundef nonnull @.str.5) #9
  %3 = icmp eq ptr %2, null
  br i1 %3, label %8, label %4

4:                                                ; preds = %1
  %5 = tail call i32 @lua_getmetatable(ptr noundef %0, i32 noundef 1) #9
  %.not = icmp eq i32 %5, 0
  br i1 %.not, label %8, label %6

6:                                                ; preds = %4
  %7 = tail call i32 @lua_rawequal(ptr noundef %0, i32 noundef -2, i32 noundef -1) #9
  %.not10 = icmp eq i32 %7, 0
  br i1 %.not10, label %8, label %9

8:                                                ; preds = %6, %4, %1
  tail call void @lua_pushnil(ptr noundef %0) #9
  br label %14

9:                                                ; preds = %6
  %10 = load ptr, ptr %2, align 8, !tbaa !4
  %11 = icmp eq ptr %10, null
  br i1 %11, label %12, label %13

12:                                               ; preds = %9
  tail call void @lua_pushlstring(ptr noundef %0, ptr noundef nonnull @.str.43, i64 noundef 11) #9
  br label %14

13:                                               ; preds = %9
  tail call void @lua_pushlstring(ptr noundef %0, ptr noundef nonnull @.str.44, i64 noundef 4) #9
  br label %14

14:                                               ; preds = %12, %13, %8
  ret i32 1
}